target datalayout = "e-m:e-p270:32:32-p271:32:32-p272:64:64-i64:64-i128:128-f80:128-n8:16:32:64-S128"
target triple = "x86_64-pc-linux-gnu"

%struct._value_string_ext = type { ptr, i32, i32, ptr, ptr }
%struct.expert_field = type { i32, i32 }
%struct._packet_info = type { ptr, ptr, i32, i32, %struct.nstime_t, %struct.nstime_t, %struct.nstime_t, i8, ptr, ptr, ptr, ptr, %struct._address, %struct._address, %struct._address, %struct._address, %struct._address, %struct._address, i32, ptr, i8, [3 x i8], %struct.anon, i32, i32, i32, i32, ptr, i8, ptr, ptr, i16, i16, i32, i32, i16, i32, i32, ptr, ptr, ptr, i8, i8, i16, i16, i16, i32, i16, i16, ptr, ptr, ptr, ptr, ptr, i32, i32 }
%struct.nstime_t = type { i64, i32 }
%struct._address = type { i32, i32, ptr, ptr }
%struct.anon = type { i8, [3 x i8] }

@hf_bssgp_msg_type = internal global i32 0, align 4
@bssgp_msg_strings_ext = internal global %struct._value_string_ext { ptr @_try_val_to_str_ext_init, i32 0, i32 148, ptr @bssgp_msg_strings, ptr @.str.470 }, align 8
@hf_bssgp_message_elements = internal global i32 0, align 4
@ei_bssgp_msg_type = internal global %struct.expert_field zeroinitializer, align 4
@ett_bssgp = internal global i32 0, align 4
@ett_bssgp_msg = internal global [149 x i32] zeroinitializer, align 16
@.str.275 = private unnamed_addr constant [6 x i8] c"BSSGP\00", align 1
@proto_bssgp = internal global i32 0, align 4
@gparent_tree = internal global ptr null, align 8
@g_rim_application_identity = internal global i8 0, align 1
@g_bssgp_ran_inf_pdu_t_ext_c = internal global i32 0, align 4
@g_pdu_type = internal global i8 0, align 1
@.str.740 = private unnamed_addr constant [21 x i8] c"Unknown message 0x%x\00", align 1

; Function Attrs: null_pointer_is_valid sspstrong uwtable
define internal void @get_bssgp_msg_params(i8 noundef zeroext %0, ptr noundef %1, ptr noundef %2, ptr noundef %3, ptr noundef %4) #1 {
  %6 = alloca i8, align 1
  %7 = alloca ptr, align 8
  %8 = alloca ptr, align 8
  %9 = alloca ptr, align 8
  %10 = alloca ptr, align 8
  %11 = alloca i32, align 4
  store i8 %0, ptr %6, align 1
  store ptr %1, ptr %7, align 8
  store ptr %2, ptr %8, align 8
  store ptr %3, ptr %9, align 8
  store ptr %4, ptr %10, align 8
  call void @llvm.lifetime.start.p0(i64 4, ptr %11) #4
  %12 = load i8, ptr %6, align 1
  %13 = zext i8 %12 to i32
  %14 = and i32 %13, 255
  %15 = call ptr @try_val_to_str_idx_ext(i32 noundef %14, ptr noundef @bssgp_msg_strings_ext, ptr noundef %11)
  %16 = load ptr, ptr %7, align 8
  store ptr %15, ptr %16, align 8
  %17 = load i32, ptr @hf_bssgp_msg_type, align 4
  %18 = load ptr, ptr %9, align 8
  store i32 %17, ptr %18, align 4
  %19 = load ptr, ptr %7, align 8
  %20 = load ptr, ptr %19, align 8
  %21 = icmp ne ptr %20, null
  br i1 %21, label %22, label %33

22:                                               ; preds = %5
  %23 = load i32, ptr %11, align 4
  %24 = sext i32 %23 to i64
  %25 = getelementptr [149 x i32], ptr @ett_bssgp_msg, i64 0, i64 %24
  %26 = load i32, ptr %25, align 4
  %27 = load ptr, ptr %8, align 8
  store i32 %26, ptr %27, align 4
  %28 = load i32, ptr %11, align 4
  %29 = sext i32 %28 to i64
  %30 = getelementptr [149 x ptr], ptr @bssgp_msg_fcn, i64 0, i64 %29
  %31 = load ptr, ptr %30, align 8
  %32 = load ptr, ptr %10, align 8
  store ptr %31, ptr %32, align 8
  br label %33

33:                                               ; preds = %22, %5
  call void @llvm.lifetime.end.p0(i64 4, ptr %11) #4
  ret void
}

; Function Attrs: null_pointer_is_valid sspstrong uwtable
define internal i32 @dissect_bssgp(ptr noundef %0, ptr noundef %1, ptr noundef %2, ptr noundef %3) #1 {
  %5 = alloca i32, align 4
  %6 = alloca ptr, align 8
  %7 = alloca ptr, align 8
  %8 = alloca ptr, align 8
  %9 = alloca ptr, align 8
  %10 = alloca ptr, align 8
  %11 = alloca ptr, align 8
  %12 = alloca i32, align 4
  %13 = alloca i32, align 4
  %14 = alloca ptr, align 8
  %15 = alloca i32, align 4
  %16 = alloca i32, align 4
  %17 = alloca ptr, align 8
  %18 = alloca i32, align 4
  store ptr %0, ptr %6, align 8
  store ptr %1, ptr %7, align 8
  store ptr %2, ptr %8, align 8
  store ptr %3, ptr %9, align 8
  call void @llvm.lifetime.start.p0(i64 8, ptr %10) #4
  call void @llvm.lifetime.start.p0(i64 8, ptr %11) #4
  store ptr null, ptr %11, align 8
  call void @llvm.lifetime.start.p0(i64 4, ptr %12) #4
  store i32 0, ptr %12, align 4
  call void @llvm.lifetime.start.p0(i64 4, ptr %13) #4
  call void @llvm.lifetime.start.p0(i64 8, ptr %14) #4
  store ptr null, ptr %14, align 8
  call void @llvm.lifetime.start.p0(i64 4, ptr %15) #4
  call void @llvm.lifetime.start.p0(i64 4, ptr %16) #4
  call void @llvm.lifetime.start.p0(i64 8, ptr %17) #4
  store i8 0, ptr @g_rim_application_identity, align 1
  store i32 268435455, ptr @g_bssgp_ran_inf_pdu_t_ext_c, align 4
  %19 = load ptr, ptr %8, align 8
  store ptr %19, ptr @gparent_tree, align 8
  %20 = load ptr, ptr %6, align 8
  %21 = call i32 @tvb_reported_length(ptr noundef %20)
  store i32 %21, ptr %13, align 4
  %22 = load ptr, ptr %7, align 8
  %23 = getelementptr inbounds nuw %struct._packet_info, ptr %22, i32 0, i32 1
  %24 = load ptr, ptr %23, align 8
  call void @col_set_str(ptr noundef %24, i32 noundef 35, ptr noundef @.str.275)
  %25 = load ptr, ptr %7, align 8
  %26 = getelementptr inbounds nuw %struct._packet_info, ptr %25, i32 0, i32 1
  %27 = load ptr, ptr %26, align 8
  call void @col_clear(ptr noundef %27, i32 noundef 25)
  %28 = load ptr, ptr %6, align 8
  %29 = load i32, ptr %12, align 4
  %30 = call zeroext i8 @tvb_get_uint8(ptr noundef %28, i32 noundef %29)
  store i8 %30, ptr @g_pdu_type, align 1
  %31 = load ptr, ptr %8, align 8
  %32 = load i32, ptr @proto_bssgp, align 4
  %33 = load ptr, ptr %6, align 8
  %34 = call ptr @proto_tree_add_item(ptr noundef %31, i32 noundef %32, ptr noundef %33, i32 noundef 0, i32 noundef -1, i32 noundef 0)
  store ptr %34, ptr %10, align 8
  %35 = load ptr, ptr %10, align 8
  %36 = load i32, ptr @ett_bssgp, align 4
  %37 = call ptr @proto_item_add_subtree(ptr noundef %35, i32 noundef %36)
  store ptr %37, ptr %11, align 8
  store ptr null, ptr %17, align 8
  store i32 -1, ptr %15, align 4
  store i32 -1, ptr %16, align 4
  store ptr null, ptr %14, align 8
  %38 = load i8, ptr @g_pdu_type, align 1
  call void @get_bssgp_msg_params(i8 noundef zeroext %38, ptr noundef %14, ptr noundef %15, ptr noundef %16, ptr noundef %17)
  %39 = load ptr, ptr %14, align 8
  %40 = icmp ne ptr %39, null
  br i1 %40, label %41, label %46

41:                                               ; preds = %4
  %42 = load ptr, ptr %7, align 8
  %43 = getelementptr inbounds nuw %struct._packet_info, ptr %42, i32 0, i32 1
  %44 = load ptr, ptr %43, align 8
  %45 = load ptr, ptr %14, align 8
  call void @col_add_str(ptr noundef %44, i32 noundef 25, ptr noundef %45)
  br label %52

46:                                               ; preds = %4
  %47 = load ptr, ptr %7, align 8
  %48 = load ptr, ptr %10, align 8
  %49 = load i8, ptr @g_pdu_type, align 1
  %50 = zext i8 %49 to i32
  %51 = call ptr (ptr, ptr, ptr, ptr, ...) @expert_add_info_format(ptr noundef %47, ptr noundef %48, ptr noundef @ei_bssgp_msg_type, ptr noundef @.str.740, i32 noundef %50)
  store i32 1, ptr %5, align 4
  store i32 1, ptr %18, align 4
  br label %83

52:                                               ; preds = %41
  %53 = load ptr, ptr %11, align 8
  %54 = load i32, ptr %16, align 4
  %55 = load ptr, ptr %6, align 8
  %56 = load i32, ptr %12, align 4
  %57 = call ptr @proto_tree_add_item(ptr noundef %53, i32 noundef %54, ptr noundef %55, i32 noundef %56, i32 noundef 1, i32 noundef 0)
  %58 = load i32, ptr %12, align 4
  %59 = add i32 %58, 1
  store i32 %59, ptr %12, align 4
  %60 = load ptr, ptr %17, align 8
  %61 = icmp eq ptr %60, null
  br i1 %61, label %62, label %71

62:                                               ; preds = %52
  %63 = load ptr, ptr %11, align 8
  %64 = load i32, ptr @hf_bssgp_message_elements, align 4
  %65 = load ptr, ptr %6, align 8
  %66 = load i32, ptr %12, align 4
  %67 = load i32, ptr %13, align 4
  %68 = load i32, ptr %12, align 4
  %69 = sub i32 %67, %68
  %70 = call ptr @proto_tree_add_item(ptr noundef %63, i32 noundef %64, ptr noundef %65, i32 noundef %66, i32 noundef %69, i32 noundef 0)
  br label %80

71:                                               ; preds = %52
  %72 = load ptr, ptr %17, align 8
  %73 = load ptr, ptr %6, align 8
  %74 = load ptr, ptr %11, align 8
  %75 = load ptr, ptr %7, align 8
  %76 = load i32, ptr %12, align 4
  %77 = load i32, ptr %13, align 4
  %78 = load i32, ptr %12, align 4
  %79 = sub i32 %77, %78
  call void %72(ptr noundef %73, ptr noundef %74, ptr noundef %75, i32 noundef %76, i32 noundef %79)
  br label %80

80:                                               ; preds = %71, %62
  %81 = load ptr, ptr %6, align 8
  %82 = call i32 @tvb_captured_length(ptr noundef %81)
  store i32 %82, ptr %5, align 4
  store i32 1, ptr %18, align 4
  br label %83

83:                                               ; preds = %80, %46
  call void @llvm.lifetime.end.p0(i64 8, ptr %17) #4
  call void @llvm.lifetime.end.p0(i64 4, ptr %16) #4
  call void @llvm.lifetime.end.p0(i64 4, ptr %15) #4
  call void @llvm.lifetime.end.p0(i64 8, ptr %14) #4
  call void @llvm.lifetime.end.p0(i64 4, ptr %13) #4
  call void @llvm.lifetime.end.p0(i64 4, ptr %12) #4
  call void @llvm.lifetime.end.p0(i64 8, ptr %11) #4
  call void @llvm.lifetime.end.p0(i64 8, ptr %10) #4
  %84 = load i32, ptr %5, align 4
  ret i32 %84
}