; Function Attrs: null_pointer_is_valid sspstrong uwtable
define internal i32 @dissect_bssgp(ptr noundef %0, ptr noundef %1, ptr noundef %2, ptr readnone captures(none) %3) #1 {
  %5 = alloca i32, align 4
  store i8 0, ptr @g_rim_application_identity, align 1
  store i32 268435455, ptr @g_bssgp_ran_inf_pdu_t_ext_c, align 4
  store ptr %2, ptr @gparent_tree, align 8
  %6 = tail call i32 @tvb_reported_length(ptr noundef %0)
  %7 = getelementptr inbounds nuw i8, ptr %1, i64 8
  %8 = load ptr, ptr %7, align 8
  tail call void @col_set_str(ptr noundef %8, i32 noundef 35, ptr noundef nonnull @.str.275)
  %9 = load ptr, ptr %7, align 8
  tail call void @col_clear(ptr noundef %9, i32 noundef 25)
  %10 = tail call zeroext i8 @tvb_get_uint8(ptr noundef %0, i32 noundef 0)
  store i8 %10, ptr @g_pdu_type, align 1
  %11 = load i32, ptr @proto_bssgp, align 4
  %12 = tail call ptr @proto_tree_add_item(ptr noundef %2, i32 noundef %11, ptr noundef %0, i32 noundef 0, i32 noundef -1, i32 noundef 0)
  %13 = load i32, ptr @ett_bssgp, align 4
  %14 = tail call ptr @proto_item_add_subtree(ptr noundef %12, i32 noundef %13)
  %15 = load i8, ptr @g_pdu_type, align 1
  call void @llvm.lifetime.start.p0(i64 4, ptr nonnull %5) #4
  %16 = zext i8 %15 to i32
  %17 = call ptr @try_val_to_str_idx_ext(i32 noundef %16, ptr noundef nonnull @bssgp_msg_strings_ext, ptr noundef nonnull %5)
  %.not.i = icmp eq ptr %17, null
  br i1 %.not.i, label %27, label %18

18:                                               ; preds = %4
  %19 = load i32, ptr @hf_bssgp_msg_type, align 4
  %20 = load i32, ptr %5, align 4
  %21 = sext i32 %20 to i64
  %22 = getelementptr [149 x ptr], ptr @bssgp_msg_fcn, i64 0, i64 %21
  %23 = load ptr, ptr %22, align 8
  call void @llvm.lifetime.end.p0(i64 4, ptr nonnull %5) #4
  %24 = load ptr, ptr %7, align 8
  call void @col_add_str(ptr noundef %24, i32 noundef 25, ptr noundef nonnull %17)
  %25 = call ptr @proto_tree_add_item(ptr noundef %14, i32 noundef %19, ptr noundef %0, i32 noundef 0, i32 noundef 1, i32 noundef 0)
  %26 = icmp eq ptr %23, null
  br i1 %26, label %31, label %35

27:                                               ; preds = %4
  call void @llvm.lifetime.end.p0(i64 4, ptr nonnull %5) #4
  %28 = load i8, ptr @g_pdu_type, align 1
  %29 = zext i8 %28 to i32
  %30 = call ptr (ptr, ptr, ptr, ptr, ...) @expert_add_info_format(ptr noundef %1, ptr noundef %12, ptr noundef nonnull @ei_bssgp_msg_type, ptr noundef nonnull @.str.740, i32 noundef %29)
  br label %39

31:                                               ; preds = %18
  %32 = load i32, ptr @hf_bssgp_message_elements, align 4
  %33 = add i32 %6, -1
  %34 = call ptr @proto_tree_add_item(ptr noundef %14, i32 noundef %32, ptr noundef %0, i32 noundef 1, i32 noundef %33, i32 noundef 0)
  br label %37

35:                                               ; preds = %18
  %36 = add i32 %6, -1
  call void %23(ptr noundef %0, ptr noundef %14, ptr noundef %1, i32 noundef 1, i32 noundef %36)
  br label %37

37:                                               ; preds = %35, %31
  %38 = call i32 @tvb_captured_length(ptr noundef %0)
  br label %39

39:                                               ; preds = %37, %27
  %.0 = phi i32 [ %38, %37 ], [ 1, %27 ]
  ret i32 %.0
}